target datalayout = "e-m:e-p270:32:32-p271:32:32-p272:64:64-i64:64-i128:128-f80:128-n8:16:32:64-S128"
target triple = "x86_64-pc-linux-gnu"

%"class.cv::Size_" = type { i32, i32 }
%"class.cv::detail::tracking::feature::CvHaarEvaluator::FeatureHaar" = type { i32, i32, %"class.std::vector.8", float, float, %"class.std::vector.13", %"class.cv::Size_", %"class.cv::Size_", float, float, %"class.std::vector.13", %"class.std::vector.8" }
%"class.std::vector.13" = type { %"struct.std::_Vector_base.14" }
%"struct.std::_Vector_base.14" = type { %"struct.std::_Vector_base<cv::Rect_<int>, std::allocator<cv::Rect_<int>>>::_Vector_impl" }
%"struct.std::_Vector_base<cv::Rect_<int>, std::allocator<cv::Rect_<int>>>::_Vector_impl" = type { %"struct.std::_Vector_base<cv::Rect_<int>, std::allocator<cv::Rect_<int>>>::_Vector_impl_data" }
%"struct.std::_Vector_base<cv::Rect_<int>, std::allocator<cv::Rect_<int>>>::_Vector_impl_data" = type { ptr, ptr, ptr }
%"class.std::vector.8" = type { %"struct.std::_Vector_base.9" }
%"struct.std::_Vector_base.9" = type { %"struct.std::_Vector_base<float, std::allocator<float>>::_Vector_impl" }
%"struct.std::_Vector_base<float, std::allocator<float>>::_Vector_impl" = type { %"struct.std::_Vector_base<float, std::allocator<float>>::_Vector_impl_data" }
%"struct.std::_Vector_base<float, std::allocator<float>>::_Vector_impl_data" = type { ptr, ptr, ptr }
%"class.cv::Rect_" = type { i32, i32, i32, i32 }

; Function Attrs: mustprogress nounwind uwtable
define linkonce_odr hidden noundef nonnull align 4 dereferenceable(4) ptr @_ZNKSt6vectorIfSaIfEEixEm(ptr noundef nonnull align 8 dereferenceable(24) %0, i64 noundef %1) #0 comdat align 2 {
  %3 = alloca ptr, align 8
  %4 = alloca i64, align 8
  store ptr %0, ptr %3, align 8, !tbaa !86
  store i64 %1, ptr %4, align 8, !tbaa !51
  %5 = load ptr, ptr %3, align 8
  %6 = getelementptr inbounds nuw %"struct.std::_Vector_base.9", ptr %5, i32 0, i32 0
  %7 = getelementptr inbounds nuw %"struct.std::_Vector_base<float, std::allocator<float>>::_Vector_impl_data", ptr %6, i32 0, i32 0
  %8 = load ptr, ptr %7, align 8, !tbaa !119
  %9 = load i64, ptr %4, align 8, !tbaa !51
  %10 = getelementptr inbounds nuw float, ptr %8, i64 %9
  ret ptr %10
}

; Function Attrs: inlinehint mustprogress nounwind uwtable
define linkonce_odr hidden void @_ZN2cv5Rect_IiEC2Eiiii(ptr noundef nonnull align 4 dereferenceable(16) %0, i32 noundef %1, i32 noundef %2, i32 noundef %3, i32 noundef %4) unnamed_addr #6 comdat align 2 {
  %6 = alloca ptr, align 8
  %7 = alloca i32, align 4
  %8 = alloca i32, align 4
  %9 = alloca i32, align 4
  %10 = alloca i32, align 4
  store ptr %0, ptr %6, align 8, !tbaa !129
  store i32 %1, ptr %7, align 4, !tbaa !20
  store i32 %2, ptr %8, align 4, !tbaa !20
  store i32 %3, ptr %9, align 4, !tbaa !20
  store i32 %4, ptr %10, align 4, !tbaa !20
  %11 = load ptr, ptr %6, align 8
  %12 = getelementptr inbounds nuw %"class.cv::Rect_", ptr %11, i32 0, i32 0
  %13 = load i32, ptr %7, align 4, !tbaa !20
  store i32 %13, ptr %12, align 4, !tbaa !108
  %14 = getelementptr inbounds nuw %"class.cv::Rect_", ptr %11, i32 0, i32 1
  %15 = load i32, ptr %8, align 4, !tbaa !20
  store i32 %15, ptr %14, align 4, !tbaa !110
  %16 = getelementptr inbounds nuw %"class.cv::Rect_", ptr %11, i32 0, i32 2
  %17 = load i32, ptr %9, align 4, !tbaa !20
  store i32 %17, ptr %16, align 4, !tbaa !112
  %18 = getelementptr inbounds nuw %"class.cv::Rect_", ptr %11, i32 0, i32 3
  %19 = load i32, ptr %10, align 4, !tbaa !20
  store i32 %19, ptr %18, align 4, !tbaa !111
  ret void
}

; Function Attrs: mustprogress nounwind uwtable
define linkonce_odr hidden noundef nonnull align 4 dereferenceable(16) ptr @_ZNKSt6vectorIN2cv5Rect_IiEESaIS2_EEixEm(ptr noundef nonnull align 8 dereferenceable(24) %0, i64 noundef %1) #0 comdat align 2 {
  %3 = alloca ptr, align 8
  %4 = alloca i64, align 8
  store ptr %0, ptr %3, align 8, !tbaa !88
  store i64 %1, ptr %4, align 8, !tbaa !51
  %5 = load ptr, ptr %3, align 8
  %6 = getelementptr inbounds nuw %"struct.std::_Vector_base.14", ptr %5, i32 0, i32 0
  %7 = getelementptr inbounds nuw %"struct.std::_Vector_base<cv::Rect_<int>, std::allocator<cv::Rect_<int>>>::_Vector_impl_data", ptr %6, i32 0, i32 0
  %8 = load ptr, ptr %7, align 8, !tbaa !121
  %9 = load i64, ptr %4, align 8, !tbaa !51
  %10 = getelementptr inbounds nuw %"class.cv::Rect_", ptr %8, i64 %9
  ret ptr %10
}

; Function Attrs: mustprogress uwtable
define hidden noundef zeroext i1 @_ZNK2cv6detail8tracking7feature15CvHaarEvaluator11FeatureHaar4evalERKNS_3MatENS_5Rect_IiEEPf(ptr noundef nonnull align 8 dereferenceable(136) %0, ptr noundef nonnull align 8 dereferenceable(96) %1, i64 %2, i64 %3, ptr noundef %4) #1 align 2 {
  %6 = alloca %"class.cv::Rect_", align 4
  %7 = alloca ptr, align 8
  %8 = alloca ptr, align 8
  %9 = alloca ptr, align 8
  %10 = alloca i32, align 4
  %11 = alloca %"class.cv::Rect_", align 4
  %12 = getelementptr inbounds nuw { i64, i64 }, ptr %6, i32 0, i32 0
  store i64 %2, ptr %12, align 4
  %13 = getelementptr inbounds nuw { i64, i64 }, ptr %6, i32 0, i32 1
  store i64 %3, ptr %13, align 4
  store ptr %0, ptr %7, align 8, !tbaa !83
  store ptr %1, ptr %8, align 8, !tbaa !39
  store ptr %4, ptr %9, align 8, !tbaa !125
  %14 = load ptr, ptr %7, align 8
  %15 = load ptr, ptr %9, align 8, !tbaa !125
  store float 0.000000e+00, ptr %15, align 4, !tbaa !47
  call void @llvm.lifetime.start.p0(i64 4, ptr %10) #17
  store i32 0, ptr %10, align 4, !tbaa !20
  br label %16

16:                                               ; preds = %61, %5
  %17 = load i32, ptr %10, align 4, !tbaa !20
  %18 = getelementptr inbounds nuw %"class.cv::detail::tracking::feature::CvHaarEvaluator::FeatureHaar", ptr %14, i32 0, i32 1
  %19 = load i32, ptr %18, align 4, !tbaa !107
  %20 = icmp slt i32 %17, %19
  br i1 %20, label %22, label %21

21:                                               ; preds = %16
  call void @llvm.lifetime.end.p0(i64 4, ptr %10) #17
  br label %64

22:                                               ; preds = %16
  %23 = load ptr, ptr %8, align 8, !tbaa !39
  %24 = getelementptr inbounds nuw %"class.cv::detail::tracking::feature::CvHaarEvaluator::FeatureHaar", ptr %14, i32 0, i32 5
  %25 = load i32, ptr %10, align 4, !tbaa !20
  %26 = sext i32 %25 to i64
  %27 = call noundef nonnull align 4 dereferenceable(16) ptr @_ZNKSt6vectorIN2cv5Rect_IiEESaIS2_EEixEm(ptr noundef nonnull align 8 dereferenceable(24) %24, i64 noundef %26) #17
  %28 = getelementptr inbounds nuw %"class.cv::Rect_", ptr %27, i32 0, i32 0
  %29 = load i32, ptr %28, align 4, !tbaa !108
  %30 = getelementptr inbounds nuw %"class.cv::detail::tracking::feature::CvHaarEvaluator::FeatureHaar", ptr %14, i32 0, i32 5
  %31 = load i32, ptr %10, align 4, !tbaa !20
  %32 = sext i32 %31 to i64
  %33 = call noundef nonnull align 4 dereferenceable(16) ptr @_ZNKSt6vectorIN2cv5Rect_IiEESaIS2_EEixEm(ptr noundef nonnull align 8 dereferenceable(24) %30, i64 noundef %32) #17
  %34 = getelementptr inbounds nuw %"class.cv::Rect_", ptr %33, i32 0, i32 1
  %35 = load i32, ptr %34, align 4, !tbaa !110
  %36 = getelementptr inbounds nuw %"class.cv::detail::tracking::feature::CvHaarEvaluator::FeatureHaar", ptr %14, i32 0, i32 5
  %37 = load i32, ptr %10, align 4, !tbaa !20
  %38 = sext i32 %37 to i64
  %39 = call noundef nonnull align 4 dereferenceable(16) ptr @_ZNKSt6vectorIN2cv5Rect_IiEESaIS2_EEixEm(ptr noundef nonnull align 8 dereferenceable(24) %36, i64 noundef %38) #17
  %40 = getelementptr inbounds nuw %"class.cv::Rect_", ptr %39, i32 0, i32 2
  %41 = load i32, ptr %40, align 4, !tbaa !112
  %42 = getelementptr inbounds nuw %"class.cv::detail::tracking::feature::CvHaarEvaluator::FeatureHaar", ptr %14, i32 0, i32 5
  %43 = load i32, ptr %10, align 4, !tbaa !20
  %44 = sext i32 %43 to i64
  %45 = call noundef nonnull align 4 dereferenceable(16) ptr @_ZNKSt6vectorIN2cv5Rect_IiEESaIS2_EEixEm(ptr noundef nonnull align 8 dereferenceable(24) %42, i64 noundef %44) #17
  %46 = getelementptr inbounds nuw %"class.cv::Rect_", ptr %45, i32 0, i32 3
  %47 = load i32, ptr %46, align 4, !tbaa !111
  call void @_ZN2cv5Rect_IiEC2Eiiii(ptr noundef nonnull align 4 dereferenceable(16) %11, i32 noundef %29, i32 noundef %35, i32 noundef %41, i32 noundef %47)
  %48 = getelementptr inbounds nuw { i64, i64 }, ptr %11, i32 0, i32 0
  %49 = load i64, ptr %48, align 4
  %50 = getelementptr inbounds nuw { i64, i64 }, ptr %11, i32 0, i32 1
  %51 = load i64, ptr %50, align 4
  %52 = call noundef float @_ZNK2cv6detail8tracking7feature15CvHaarEvaluator11FeatureHaar6getSumERKNS_3MatENS_5Rect_IiEE(ptr noundef nonnull align 8 dereferenceable(136) %14, ptr noundef nonnull align 8 dereferenceable(96) %23, i64 %49, i64 %51)
  %53 = getelementptr inbounds nuw %"class.cv::detail::tracking::feature::CvHaarEvaluator::FeatureHaar", ptr %14, i32 0, i32 11
  %54 = load i32, ptr %10, align 4, !tbaa !20
  %55 = sext i32 %54 to i64
  %56 = call noundef nonnull align 4 dereferenceable(4) ptr @_ZNKSt6vectorIfSaIfEEixEm(ptr noundef nonnull align 8 dereferenceable(24) %53, i64 noundef %55) #17
  %57 = load float, ptr %56, align 4, !tbaa !47
  %58 = load ptr, ptr %9, align 8, !tbaa !125
  %59 = load float, ptr %58, align 4, !tbaa !47
  %60 = call float @llvm.fmuladd.f32(float %52, float %57, float %59)
  store float %60, ptr %58, align 4, !tbaa !47
  br label %61

61:                                               ; preds = %22
  %62 = load i32, ptr %10, align 4, !tbaa !20
  %63 = add nsw i32 %62, 1
  store i32 %63, ptr %10, align 4, !tbaa !20
  br label %16, !llvm.loop !126

64:                                               ; preds = %21
  ret i1 true
}