; Function Attrs: mustprogress nofree norecurse nosync nounwind memory(read, argmem: readwrite, inaccessiblemem: none) uwtable
define hidden noundef zeroext i1 @_ZNK2cv6detail8tracking7feature15CvHaarEvaluator11FeatureHaar4evalERKNS_3MatENS_5Rect_IiEEPf(ptr noundef nonnull readonly align 8 captures(none) dereferenceable(136) %0, ptr noundef nonnull readonly align 8 captures(none) dereferenceable(96) %1, i64 %2, i64 %3, ptr noundef writeonly captures(none) initializes((0, 4)) %4) local_unnamed_addr #12 align 2 {
  store float 0.000000e+00, ptr %4, align 4, !tbaa !40
  %6 = getelementptr inbounds nuw i8, ptr %0, i64 4
  %7 = load i32, ptr %6, align 4, !tbaa !83
  %8 = icmp sgt i32 %7, 0
  br i1 %8, label %.lr.ph, label %._crit_edge

.lr.ph:                                           ; preds = %5
  %9 = getelementptr inbounds nuw i8, ptr %0, i64 40
  %10 = load ptr, ptr %9, align 8, !tbaa !70
  %11 = getelementptr inbounds nuw i8, ptr %0, i64 112
  %12 = load ptr, ptr %11, align 8, !tbaa !67
  %wide.trip.count = zext nneg i32 %7 to i64
  br label %13

._crit_edge:                                      ; preds = %13, %5
  ret i1 true

13:                                               ; preds = %.lr.ph, %13
  %indvars.iv = phi i64 [ 0, %.lr.ph ], [ %indvars.iv.next, %13 ]
  %14 = phi float [ 0.000000e+00, %.lr.ph ], [ %22, %13 ]
  %15 = getelementptr inbounds nuw %"class.cv::Rect_", ptr %10, i64 %indvars.iv
  %16 = load i64, ptr %15, align 4
  %17 = getelementptr inbounds nuw i8, ptr %15, i64 8
  %18 = load i64, ptr %17, align 4
  %19 = tail call noundef float @_ZNK2cv6detail8tracking7feature15CvHaarEvaluator11FeatureHaar6getSumERKNS_3MatENS_5Rect_IiEE(ptr nonnull align 8 poison, ptr noundef nonnull align 8 dereferenceable(96) %1, i64 %16, i64 %18)
  %20 = getelementptr inbounds nuw float, ptr %12, i64 %indvars.iv
  %21 = load float, ptr %20, align 4, !tbaa !40
  %22 = tail call float @llvm.fmuladd.f32(float %19, float %21, float %14)
  store float %22, ptr %4, align 4, !tbaa !40
  %indvars.iv.next = add nuw nsw i64 %indvars.iv, 1
  %exitcond.not = icmp eq i64 %indvars.iv.next, %wide.trip.count
  br i1 %exitcond.not, label %._crit_edge, label %13, !llvm.loop !104
}